Certificate:
    Data:
        Version: 3 (0x2)
        Serial Number: 3 (0x3)
    Signature Algorithm: sha256WithRSAEncryption
        Issuer: C=NO, O=Conax AS, CN=Conax Security Certificate Authority
        Validity
            Not Before: Mar 20 23:00:00 2011 GMT
            Not After : Mar 20 23:00:00 2071 GMT
        Subject: C=NO, O=Conax AS, CN=Conax Security Certificate Authority
        Subject Public Key Info:
            Public Key Algorithm: rsaEncryption
                Public-Key: (2048 bit)
                Modulus:
                    00:80:ec:24:64:8c:6f:4d:27:c4:f2:ae:b6:ae:99:
                    a5:87:52:34:17:48:44:84:58:2d:9a:c9:d8:d7:64:
                    d9:c4:46:94:18:ee:d2:78:45:35:4c:6d:de:39:5c:
                    ee:36:ac:d9:14:fb:42:72:55:e0:0d:be:2d:7e:13:
                    83:47:01:e7:00:c5:45:3f:f0:3f:d3:89:8e:cf:80:
                    01:ba:90:57:42:16:d9:b5:36:fa:5c:b9:65:e5:5f:
                    45:80:9d:f7:ec:59:07:46:e7:86:19:00:ef:2e:28:
                    fa:bb:42:d1:2b:08:c1:c5:21:03:e6:2e:e5:8a:4e:
                    8e:d9:d7:c5:69:1b:8a:32:f2:94:fe:b5:54:bd:08:
                    93:89:a9:7e:f0:52:ba:2d:87:dd:10:8d:96:cb:ea:
                    2a:c9:23:43:65:6c:dd:7e:f0:1e:ee:41:15:57:ae:
                    0e:06:75:a3:27:04:33:66:f6:1b:9c:fd:57:47:40:
                    3f:3d:0e:ac:0a:86:48:89:24:bf:1b:6f:62:f3:fa:
                    45:ee:46:06:91:8c:bb:a3:fb:c3:b0:2e:3c:2b:24:
                    a8:59:8d:99:63:1c:cf:b8:4b:04:22:81:3c:2a:47:
                    3f:a4:d8:05:71:8d:d2:6e:e0:b8:0e:31:fd:39:df:
                    6a:78:a3:65:b8:db:0d:26:2c:b9:dc:91:41:50:6b:
                    e4:77
                Exponent: 65537 (0x10001)
        X509v3 extensions:
            X509v3 Basic Constraints: critical
                CA:TRUE
            X509v3 Key Usage: 
                Digital Signature, Non Repudiation, Certificate Sign, CRL Sign
            X509v3 Subject Key Identifier: 
                04:14:8D:D3:A5:FE:42:25:FC:28:27:01:18:9C:9B:C9:81:FE:12:36:42:61
    Signature Algorithm: sha256WithRSAEncryption
         23:28:1a:4e:dd:5c:10:01:e0:1c:d3:3c:ea:fe:4b:cc:2b:a8:
         2f:83:38:62:04:a1:a2:f2:49:45:c2:64:4c:36:c2:ea:55:ea:
         9b:41:32:a6:4c:4f:4c:aa:80:5f:96:b5:ff:be:5a:84:a0:e2:
         06:8d:b0:6d:93:75:f2:a7:3a:f5:49:c3:1f:60:b9:d0:8b:0d:
         9d:3d:78:03:af:4c:ea:26:7c:43:9c:b9:87:a3:4b:a8:9a:78:
         fb:18:2c:19:d3:ab:6a:63:1e:d8:64:24:70:f3:a1:18:59:f1:
         61:5a:b3:da:d3:14:9f:62:0e:27:fd:a2:fc:8a:3c:28:d3:0a:
         4d:95:16:31:a6:81:10:bb:fa:be:93:c7:b5:db:89:b8:16:b0:
         bb:c8:85:71:f2:18:18:45:07:6b:3b:09:37:da:8b:c2:f0:87:
         25:92:df:a1:19:61:9e:43:88:a9:e1:ff:55:d0:d7:51:86:39:
         5c:11:7d:ef:ed:8c:c5:91:28:fd:f5:ca:df:50:a0:2d:ab:c3:
         c3:f1:72:92:e5:eb:95:7c:69:c2:08:9e:ad:4c:6c:72:13:dd:
         8a:25:5a:28:6f:f2:51:6e:aa:30:7c:f7:6d:10:53:de:ea:7e:
         7a:75:cb:cc:0e:63:7f:9b:2a:00:e2:7b:6c:6e:06:2b:f2:ef:
         13:a6:75:b5
-----BEGIN CERTIFICATE-----
MIIDXDCCAkSgAwIBAgIBAzANBgkqhkiG9w0BAQsFADBPMQswCQYDVQQGEwJOTzER
MA8GA1UEChMIQ29uYXggQVMxLTArBgNVBAMTJENvbmF4IFNlY3VyaXR5IENlcnRp
ZmljYXRlIEF1dGhvcml0eTAgFw0xMTAzMjAyMzAwMDBaGA8yMDcxMDMyMDIzMDAw
MFowTzELMAkGA1UEBhMCTk8xETAPBgNVBAoTCENvbmF4IEFTMS0wKwYDVQQDEyRD
b25heCBTZWN1cml0eSBDZXJ0aWZpY2F0ZSBBdXRob3JpdHkwggEiMA0GCSqGSIb3
DQEBAQUAA4IBDwAwggEKAoIBAQCA7CRkjG9NJ8TyrraumaWHUjQXSESEWC2aydjX
ZNnERpQY7tJ4RTVMbd45XO42rNkU+0JyVeANvi1+E4NHAecAxUU/8D/TiY7PgAG6
kFdCFtm1NvpcuWXlX0WAnffsWQdG54YZAO8uKPq7QtErCMHFIQPmLuWKTo7Z18Vp
G4oy8pT+tVS9CJOJqX7wUroth90QjZbL6irJI0NlbN1+8B7uQRVXrg4GdaMnBDNm
9huc/VdHQD89DqwKhkiJJL8bb2Lz+kXuRgaRjLuj+8OwLjwrJKhZjZljHM+4SwQi
gTwqRz+k2AVxjdJu4LgOMf0532p4o2W42w0mLLnckUFQa+R3AgMBAAGjQTA/MA8G
A1UdEwEB/wQFMAMBAf8wCwYDVR0PBAQDAgHGMB8GA1UdDgQYBBYEFI3Tpf5CJfwo
JwEYnJvJgf4SNkJhMA0GCSqGSIb3DQEBCwUAA4IBAQAjKBpO3VwQAeAc0zzq/kvM
K6gvgzhiBKGi8klFwmRMNsLqVeqbQTKmTE9MqoBflrX/vlqEoOIGjbBtk3Xypzr1
ScMfYLnQiw2dPXgDr0zqJnxDnLmHo0uomnj7GCwZ06tqYx7YZCRw86EYWfFhWrPa
0xSfYg4n/aL8ijwo0wpNlRYxpoEQu/q+k8e124m4FrC7yIVx8hgYRQdrOwk32ovC
8Iclkt+hGWGeQ4ip4f9V0NdRhjlcEX3v7YzFkSj99crfUKAtq8PD8XKS5euVfGnC
CJ6tTGxyE92KJVoob/JRbqowfPdtEFPe6n56dcvMDmN/myoA4ntsbgYr8u8TpnW1
-----END CERTIFICATE-----
