Certificate:
    Data:
        Version: 3 (0x2)
        Serial Number:
            5f:9f:b6:e7:f3:0b:cf:70:6c:2b:50:ea:67:60:9d:04:c4:a2:cd:ef
    Signature Algorithm: sha256WithRSAEncryption
        Issuer: C=PL, ST=Mazowieckie, L=Warsaw, O=Cubiware Sp. z o.o., OU=Security Department, CN=Cubiware2PortalTestRootCA
        Validity
            Not Before: Jan  1 00:00:00 2008 GMT
            Not After : Jan  1 00:00:00 2035 GMT
        Subject: C=PL, ST=Mazowieckie, L=Warsaw, O=Cubiware Sp. z o.o., OU=Security Department, CN=Cubiware2PortalTestRootCA
        Subject Public Key Info:
            Public Key Algorithm: rsaEncryption
                Public-Key: (2048 bit)
                Modulus:
                    00:d8:ad:6e:b4:9c:11:c4:6d:25:d8:79:1e:b0:8d:
                    08:49:22:c8:00:15:73:9b:14:3e:c5:44:66:d2:41:
                    fd:6d:eb:ce:6e:ad:c8:0e:e8:d0:db:c7:6e:ae:b2:
                    37:8e:ff:c8:ce:fc:16:fe:71:70:68:1e:9b:76:8f:
                    a1:52:1f:19:48:c7:c7:4a:5d:b9:2f:f2:2e:dc:0e:
                    43:be:0b:ff:ae:7d:8e:78:0a:4d:fe:1a:6e:e6:fc:
                    91:57:b7:05:6e:71:06:17:17:e2:d2:9f:b6:66:a2:
                    bf:37:f9:9f:9e:d7:91:83:3f:df:a2:a1:51:d4:00:
                    ab:fb:7f:23:fe:97:17:16:0a:fc:fb:49:b5:ba:f9:
                    e2:37:a4:42:64:3f:7a:9a:ab:08:1a:fe:4b:2f:91:
                    85:d7:da:ce:d5:fd:e9:43:8b:88:b1:29:96:7a:ad:
                    ad:cd:d0:09:13:3c:05:4a:03:8a:9c:8f:9a:8d:80:
                    ff:a7:99:8b:7f:57:fa:19:1f:de:5a:e1:ff:a6:6a:
                    60:e5:88:04:75:4a:f3:4d:46:cc:ee:66:6a:21:e2:
                    15:cb:a1:f0:7e:2b:21:cb:6e:f9:5c:b9:f8:9f:18:
                    38:92:95:7d:54:72:0a:70:c8:d4:d3:da:81:1e:12:
                    61:96:f2:d9:f4:a6:52:84:c9:b5:7c:bd:e5:6e:2a:
                    07:cb
                Exponent: 65537 (0x10001)
        X509v3 extensions:
            X509v3 Subject Key Identifier: 
                82:5D:71:EC:09:09:3C:B4:50:5A:46:40:2F:A2:72:77:6F:0C:AF:4C
            X509v3 Authority Key Identifier: 
                keyid:82:5D:71:EC:09:09:3C:B4:50:5A:46:40:2F:A2:72:77:6F:0C:AF:4C
                DirName:/C=PL/ST=Mazowieckie/L=Warsaw/O=Cubiware Sp. z o.o./OU=Security Department/CN=Cubiware2PortalTestRootCA
                serial:5F:9F:B6:E7:F3:0B:CF:70:6C:2B:50:EA:67:60:9D:04:C4:A2:CD:EF

            X509v3 Basic Constraints: critical
                CA:TRUE
            X509v3 Key Usage: 
                Digital Signature, Certificate Sign, CRL Sign
            X509v3 CRL Distribution Points: 

                Full Name:
                  URI:http://ca.cubiware.com/Root-CA.crl

    Signature Algorithm: sha256WithRSAEncryption
         bf:f9:ec:0b:c4:c0:2b:d6:47:26:b9:b4:a8:25:52:f9:a7:56:
         3a:29:14:9c:9d:f2:e7:4f:2c:fb:76:22:b6:aa:37:cc:12:fa:
         d2:93:6c:26:cc:46:83:b2:49:7c:76:a6:24:e5:9b:0f:57:f0:
         f1:78:97:60:1f:e3:ed:b1:e3:47:81:fe:47:3a:9f:7f:6e:95:
         52:23:c6:6e:f2:66:3a:ca:0b:c7:59:27:54:e2:3d:98:a5:2a:
         61:ff:eb:25:f3:6a:28:c7:2c:a0:95:84:1d:3f:66:de:b9:d4:
         51:48:d8:ba:5f:92:cd:eb:1b:ed:3b:0d:db:36:b2:5d:a5:75:
         20:d6:f0:e4:e0:69:a7:93:de:d8:50:1a:a7:e3:54:f6:2b:a2:
         95:c3:9f:fc:56:88:d2:18:19:4f:78:17:9d:b2:98:1e:35:92:
         e3:2a:f1:da:fd:54:2f:a3:96:01:8c:7a:61:eb:85:c2:e6:d6:
         63:53:3c:d8:de:5c:e6:57:c5:a9:5b:33:c0:45:9a:9b:6e:94:
         57:ab:76:47:28:62:0d:99:a8:25:b8:5c:71:bb:74:ee:ee:24:
         76:5c:40:17:69:d9:1c:01:c0:5c:79:fe:83:cf:3f:8e:8e:25:
         a7:dc:66:2c:1e:d4:01:50:df:7a:fb:f9:d8:bf:20:ce:eb:28:
         37:f0:e3:bc
-----BEGIN CERTIFICATE-----
MIIFBzCCA++gAwIBAgIUX5+25/MLz3BsK1DqZ2CdBMSize8wDQYJKoZIhvcNAQEL
BQAwgZQxCzAJBgNVBAYTAlBMMRQwEgYDVQQIEwtNYXpvd2llY2tpZTEPMA0GA1UE
BxMGV2Fyc2F3MRwwGgYDVQQKExNDdWJpd2FyZSBTcC4geiBvLm8uMRwwGgYDVQQL
ExNTZWN1cml0eSBEZXBhcnRtZW50MSIwIAYDVQQDExlDdWJpd2FyZTJQb3J0YWxU
ZXN0Um9vdENBMB4XDTA4MDEwMTAwMDAwMFoXDTM1MDEwMTAwMDAwMFowgZQxCzAJ
BgNVBAYTAlBMMRQwEgYDVQQIEwtNYXpvd2llY2tpZTEPMA0GA1UEBxMGV2Fyc2F3
MRwwGgYDVQQKExNDdWJpd2FyZSBTcC4geiBvLm8uMRwwGgYDVQQLExNTZWN1cml0
eSBEZXBhcnRtZW50MSIwIAYDVQQDExlDdWJpd2FyZTJQb3J0YWxUZXN0Um9vdENB
MIIBIjANBgkqhkiG9w0BAQEFAAOCAQ8AMIIBCgKCAQEA2K1utJwRxG0l2HkesI0I
SSLIABVzmxQ+xURm0kH9bevObq3IDujQ28durrI3jv/IzvwW/nFwaB6bdo+hUh8Z
SMfHSl25L/Iu3A5Dvgv/rn2OeApN/hpu5vyRV7cFbnEGFxfi0p+2ZqK/N/mfnteR
gz/foqFR1ACr+38j/pcXFgr8+0m1uvniN6RCZD96mqsIGv5LL5GF19rO1f3pQ4uI
sSmWeq2tzdAJEzwFSgOKnI+ajYD/p5mLf1f6GR/eWuH/pmpg5YgEdUrzTUbM7mZq
IeIVy6Hwfishy275XLn4nxg4kpV9VHIKcMjU09qBHhJhlvLZ9KZShMm1fL3lbioH
ywIDAQABo4IBTTCCAUkwHQYDVR0OBBYEFIJdcewJCTy0UFpGQC+icndvDK9MMIHU
BgNVHSMEgcwwgcmAFIJdcewJCTy0UFpGQC+icndvDK9MoYGapIGXMIGUMQswCQYD
VQQGEwJQTDEUMBIGA1UECBMLTWF6b3dpZWNraWUxDzANBgNVBAcTBldhcnNhdzEc
MBoGA1UEChMTQ3ViaXdhcmUgU3AuIHogby5vLjEcMBoGA1UECxMTU2VjdXJpdHkg
RGVwYXJ0bWVudDEiMCAGA1UEAxMZQ3ViaXdhcmUyUG9ydGFsVGVzdFJvb3RDQYIU
X5+25/MLz3BsK1DqZ2CdBMSize8wDwYDVR0TAQH/BAUwAwEB/zALBgNVHQ8EBAMC
AYYwMwYDVR0fBCwwKjAooCagJIYiaHR0cDovL2NhLmN1Yml3YXJlLmNvbS9Sb290
LUNBLmNybDANBgkqhkiG9w0BAQsFAAOCAQEAv/nsC8TAK9ZHJrm0qCVS+adWOikU
nJ3y508s+3Yitqo3zBL60pNsJsxGg7JJfHamJOWbD1fw8XiXYB/j7bHjR4H+Rzqf
f26VUiPGbvJmOsoLx1knVOI9mKUqYf/rJfNqKMcsoJWEHT9m3rnUUUjYul+Szesb
7TsN2zayXaV1INbw5OBpp5Pe2FAap+NU9iuilcOf/FaI0hgZT3gXnbKYHjWS4yrx
2v1UL6OWAYx6YeuFwubWY1M82N5c5lfFqVszwEWam26UV6t2RyhiDZmoJbhccbt0
7u4kdlxAF2nZHAHAXHn+g88/jo4lp9xmLB7UAVDfevv52L8gzusoN/DjvA==
-----END CERTIFICATE-----
