Certificate:
    Data:
        Version: 3 (0x2)
        Serial Number: 121 (0x79)
        Signature Algorithm: sha1WithRSAEncryption
        Issuer: C=PL, O=Cubiware, OU=CA, CN=CubiwareRootCA
        Validity
            Not Before: Jan  1 00:00:00 2008 GMT
            Not After : Jan  1 00:00:00 2028 GMT
        Subject: C=PL, L=Warsaw, O=Cubiware, OU=CA, CN=MW_NuevoSiglo_Production
        Subject Public Key Info:
            Public Key Algorithm: rsaEncryption
            RSA Public Key: (2048 bit)
                Modulus (2048 bit):
                    00:b7:92:00:f2:68:23:28:af:e9:fd:97:05:bc:09:
                    89:29:ad:08:70:b6:52:b4:f6:ed:37:24:ad:6c:e0:
                    d5:e0:2b:75:83:c7:7a:5f:87:9f:0b:76:71:2b:d4:
                    68:95:1d:e9:e3:68:20:33:92:c7:aa:6b:6b:56:0c:
                    3e:6f:ff:23:0a:73:98:dc:0a:89:f6:af:bd:f1:31:
                    f7:e1:11:ae:94:bd:7d:74:50:ae:1f:ae:1a:90:7b:
                    9d:ea:bb:57:c2:d8:75:35:f2:e3:c2:67:9e:d8:76:
                    20:9a:47:d4:f7:d3:79:ea:e8:42:eb:40:82:36:71:
                    26:3d:1e:10:88:8e:21:f4:57:13:44:a7:5d:c1:ef:
                    ce:7e:bf:67:95:c2:cb:19:10:42:9c:bb:22:9d:98:
                    ed:b9:59:08:33:48:c4:49:31:97:a7:47:b3:94:3d:
                    58:70:ac:c4:bb:54:a7:04:4b:ed:95:e3:a0:85:12:
                    5d:de:06:d0:74:b3:64:bb:89:eb:0c:e9:4e:a5:b8:
                    98:88:e9:35:34:51:80:f2:22:3c:d9:2f:c6:68:78:
                    e6:ec:00:62:ad:c6:49:47:36:f8:c3:77:26:37:f3:
                    8d:ca:92:84:b0:85:2d:67:19:8f:20:ec:6f:4c:dc:
                    1a:59:3b:e4:c8:62:fa:e7:07:cd:f4:79:24:6c:32:
                    df:a5
                Exponent: 65537 (0x10001)
        X509v3 extensions:
            Netscape Comment: 
                OpenSSL Generated Certificate
            X509v3 Subject Key Identifier: 
                F7:4C:02:50:1F:DC:D0:E2:D5:1C:7D:65:6F:CA:B8:10:CA:73:46:89
            X509v3 Authority Key Identifier: 
                keyid:85:4F:35:C4:1F:91:CA:1C:4F:BC:7D:C1:F6:FE:A2:41:F3:DB:DB:69

            X509v3 Subject Alternative Name: 
                DNS:nsmw.boldmss.com, DNS:*.cubiware.com
    Signature Algorithm: sha1WithRSAEncryption
        c8:f4:6a:ed:ce:06:16:3a:fb:d6:b5:e5:74:7a:e8:a7:ee:47:
        ee:28:02:14:a1:bc:45:8e:68:8b:18:6b:fc:5d:09:ae:f0:25:
        d8:cc:ec:7e:cf:a3:5c:67:27:22:2b:3a:a4:50:d0:74:9b:4f:
        d1:5c:4b:77:de:59:03:0b:15:26:49:84:c5:78:bd:95:bd:7a:
        66:70:30:5f:4b:5a:c0:3b:5a:7a:ca:71:0a:4d:be:3e:b2:94:
        cc:82:5d:7e:ba:00:74:72:e5:1e:63:b5:f3:01:ab:a4:6e:70:
        a9:b7:4e:8d:c1:3d:b7:9a:70:fa:e5:10:9a:60:0c:46:d1:30:
        33:b3:c6:ee:92:db:f1:d4:55:6e:1d:a9:bc:2d:9c:c7:6d:85:
        b3:64:40:ce:ae:2d:c8:13:4e:51:ca:6b:d7:80:b4:ea:62:c1:
        64:4f:8d:51:18:f5:6d:95:72:36:84:79:12:e3:0a:51:1d:e9:
        1f:98:ae:a2:8e:af:c6:41:85:f3:c2:a4:b4:81:e1:a1:fb:40:
        90:1c:fd:b4:ea:9e:94:ea:ca:87:3a:2d:b8:bb:4b:4d:c0:39:
        cc:b5:64:e3:7f:7c:3d:78:c2:b2:89:33:e9:76:fb:b2:84:d5:
        a7:c3:81:95:14:c0:03:b9:0f:94:6b:03:8a:3c:81:e5:fb:a8:
        be:7c:e4:fc
-----BEGIN CERTIFICATE-----
MIIDwTCCAqmgAwIBAgIBeTANBgkqhkiG9w0BAQUFADBGMQswCQYDVQQGEwJQTDER
MA8GA1UEChMIQ3ViaXdhcmUxCzAJBgNVBAsTAkNBMRcwFQYDVQQDEw5DdWJpd2Fy
ZVJvb3RDQTAeFw0wODAxMDEwMDAwMDBaFw0yODAxMDEwMDAwMDBaMGExCzAJBgNV
BAYTAlBMMQ8wDQYDVQQHEwZXYXJzYXcxETAPBgNVBAoTCEN1Yml3YXJlMQswCQYD
VQQLEwJDQTEhMB8GA1UEAxQYTVdfTnVldm9TaWdsb19Qcm9kdWN0aW9uMIIBIjAN
BgkqhkiG9w0BAQEFAAOCAQ8AMIIBCgKCAQEAt5IA8mgjKK/p/ZcFvAmJKa0IcLZS
tPbtNyStbODV4Ct1g8d6X4efC3ZxK9RolR3p42ggM5LHqmtrVgw+b/8jCnOY3AqJ
9q+98TH34RGulL19dFCuH64akHud6rtXwth1NfLjwmee2HYgmkfU99N56uhC60CC
NnEmPR4QiI4h9FcTRKddwe/Ofr9nlcLLGRBCnLsinZjtuVkIM0jESTGXp0ezlD1Y
cKzEu1SnBEvtleOghRJd3gbQdLNku4nrDOlOpbiYiOk1NFGA8iI82S/GaHjm7ABi
rcZJRzb4w3cmN/ONypKEsIUtZxmPIOxvTNwaWTvkyGL65wfN9HkkbDLfpQIDAQAB
o4GeMIGbMCwGCWCGSAGG+EIBDQQfFh1PcGVuU1NMIEdlbmVyYXRlZCBDZXJ0aWZp
Y2F0ZTAdBgNVHQ4EFgQU90wCUB/c0OLVHH1lb8q4EMpzRokwHwYDVR0jBBgwFoAU
hU81xB+RyhxPvH3B9v6iQfPb22kwKwYDVR0RBCQwIoIQbnNtdy5ib2xkbXNzLmNv
bYIOKi5jdWJpd2FyZS5jb20wDQYJKoZIhvcNAQEFBQADggEBAMj0au3OBhY6+9a1
5XR66KfuR+4oAhShvEWOaIsYa/xdCa7wJdjM7H7Po1xnJyIrOqRQ0HSbT9FcS3fe
WQMLFSZJhMV4vZW9emZwMF9LWsA7WnrKcQpNvj6ylMyCXX66AHRy5R5jtfMBq6Ru
cKm3To3BPbeacPrlEJpgDEbRMDOzxu6S2/HUVW4dqbwtnMdthbNkQM6uLcgTTlHK
a9eAtOpiwWRPjVEY9W2VcjaEeRLjClEd6R+YrqKOr8ZBhfPCpLSB4aH7QJAc/bTq
npTqyoc6Lbi7S03AOcy1ZON/fD14wrKJM+l2+7KE1afDgZUUwAO5D5RrA4o8geX7
qL585Pw=
-----END CERTIFICATE-----
