Certificate:
    Data:
        Version: 3 (0x2)
        Serial Number: 136 (0x88)
        Signature Algorithm: sha1WithRSAEncryption
        Issuer: C=PL, O=Cubiware, OU=CA, CN=CubiwareRootCA
        Validity
            Not Before: Jan  1 00:00:00 2008 GMT
            Not After : Jan  1 00:00:00 2028 GMT
        Subject: C=PL, L=Warsaw, O=Cubiware, OU=CA, CN=STB_hnc2200co_NuevoSiglo_OTA
        Subject Public Key Info:
            Public Key Algorithm: rsaEncryption
            RSA Public Key: (2048 bit)
                Modulus (2048 bit):
                    00:c0:a8:79:6c:9e:b4:a3:ad:ca:b0:b5:c7:17:07:
                    90:78:16:12:83:fe:d5:d5:ee:a7:ce:0c:93:5e:47:
                    34:7f:c5:b1:dc:f0:a9:2d:a5:80:a9:c3:97:3f:ac:
                    e8:41:d4:ca:30:0d:49:db:77:72:c0:65:74:49:4d:
                    72:ff:71:86:4e:7f:a3:54:a8:e3:43:37:24:73:fd:
                    09:f7:d6:32:73:60:9b:83:e4:87:82:bf:c3:a3:92:
                    e5:e2:4d:ac:61:9e:22:a6:0c:1c:4f:c8:2f:91:c9:
                    73:b7:a9:71:c9:8c:bb:5a:a8:af:dd:e2:6b:b4:76:
                    aa:0c:47:73:a6:6a:7e:bc:83:39:0d:89:15:71:9e:
                    42:ca:9c:da:fa:e1:fb:cc:9e:25:bd:4e:9e:c6:c8:
                    11:fb:fa:43:cc:24:0e:6a:c9:1d:7d:df:1b:79:e4:
                    aa:b8:27:e9:c3:92:e2:1e:53:15:9b:81:d1:38:a0:
                    cd:18:c4:80:5c:7c:6f:ca:7c:c8:9f:e1:33:c9:b6:
                    28:e1:31:51:34:cf:df:a5:2d:07:b6:18:31:2f:86:
                    40:ae:f8:0f:c3:0f:a6:05:d7:8c:68:3c:00:8c:c6:
                    17:f5:c9:14:97:e7:e7:de:46:c2:5d:d8:28:25:e2:
                    1b:75:30:68:a2:2c:f2:1d:d5:38:8e:9c:33:d9:81:
                    9a:03
                Exponent: 65537 (0x10001)
        X509v3 extensions:
            Netscape Comment: 
                OpenSSL Generated Certificate
            X509v3 Subject Key Identifier: 
                D6:9F:1A:AD:69:CA:55:04:4B:9C:2A:4E:F4:BE:79:DE:B0:20:77:8F
            X509v3 Authority Key Identifier: 
                keyid:85:4F:35:C4:1F:91:CA:1C:4F:BC:7D:C1:F6:FE:A2:41:F3:DB:DB:69

            X509v3 Subject Alternative Name: 
                DNS:nsupg.boldmss.com, DNS:*.cubiware.com
    Signature Algorithm: sha1WithRSAEncryption
        8c:87:f5:ef:3e:eb:2c:21:d8:5c:01:ef:c8:9b:0f:22:f5:c7:
        af:d9:0d:83:2c:ba:f1:3c:ed:74:43:bf:fa:83:27:27:de:47:
        d3:4f:2f:ca:44:0b:98:c6:e7:41:fe:0c:83:9f:8b:76:c2:11:
        ab:63:2f:20:4b:ea:29:75:4c:7c:8a:2a:dc:cb:13:8c:0d:95:
        90:1a:13:86:22:09:e3:dd:2c:0a:53:82:14:b5:23:91:10:4a:
        08:32:85:b2:68:1d:a4:6a:cd:24:ea:02:f0:e8:5f:88:96:f4:
        44:67:92:0a:35:65:8c:9f:d4:9c:51:07:90:07:d5:9c:37:ff:
        1c:cc:7a:d9:28:6a:98:68:3c:d4:11:e9:24:50:60:9f:ab:7d:
        1b:cd:7a:6b:d3:82:97:e8:ec:0c:62:08:b3:80:d5:69:ad:6f:
        9b:b0:aa:09:44:70:e6:a2:0e:02:21:a6:19:fa:3f:a1:1a:29:
        45:d3:c2:18:83:4c:1f:25:4f:89:71:62:22:8d:0a:1e:1c:98:
        3d:c9:0c:13:30:7d:67:f2:2f:d6:29:0d:04:3c:09:87:05:52:
        03:ea:c9:65:06:4c:6b:20:c4:ef:ed:9e:77:40:eb:d7:a2:dd:
        ac:df:bd:16:e3:d6:2d:c6:3b:43:8b:5e:d8:ea:94:b6:5a:fe:
        85:19:b6:e4
-----BEGIN CERTIFICATE-----
MIIDxzCCAq+gAwIBAgICAIgwDQYJKoZIhvcNAQEFBQAwRjELMAkGA1UEBhMCUEwx
ETAPBgNVBAoTCEN1Yml3YXJlMQswCQYDVQQLEwJDQTEXMBUGA1UEAxMOQ3ViaXdh
cmVSb290Q0EwHhcNMDgwMTAxMDAwMDAwWhcNMjgwMTAxMDAwMDAwWjBlMQswCQYD
VQQGEwJQTDEPMA0GA1UEBxMGV2Fyc2F3MREwDwYDVQQKEwhDdWJpd2FyZTELMAkG
A1UECxMCQ0ExJTAjBgNVBAMUHFNUQl9obmMyMjAwY29fTnVldm9TaWdsb19PVEEw
ggEiMA0GCSqGSIb3DQEBAQUAA4IBDwAwggEKAoIBAQDAqHlsnrSjrcqwtccXB5B4
FhKD/tXV7qfODJNeRzR/xbHc8KktpYCpw5c/rOhB1MowDUnbd3LAZXRJTXL/cYZO
f6NUqONDNyRz/Qn31jJzYJuD5IeCv8OjkuXiTaxhniKmDBxPyC+RyXO3qXHJjLta
qK/d4mu0dqoMR3Oman68gzkNiRVxnkLKnNr64fvMniW9Tp7GyBH7+kPMJA5qyR19
3xt55Kq4J+nDkuIeUxWbgdE4oM0YxIBcfG/KfMif4TPJtijhMVE0z9+lLQe2GDEv
hkCu+A/DD6YF14xoPACMxhf1yRSX5+feRsJd2Cgl4ht1MGiiLPId1TiOnDPZgZoD
AgMBAAGjgZ8wgZwwLAYJYIZIAYb4QgENBB8WHU9wZW5TU0wgR2VuZXJhdGVkIENl
cnRpZmljYXRlMB0GA1UdDgQWBBTWnxqtacpVBEucKk70vnnesCB3jzAfBgNVHSME
GDAWgBSFTzXEH5HKHE+8fcH2/qJB89vbaTAsBgNVHREEJTAjghFuc3VwZy5ib2xk
bXNzLmNvbYIOKi5jdWJpd2FyZS5jb20wDQYJKoZIhvcNAQEFBQADggEBAIyH9e8+
6ywh2FwB78ibDyL1x6/ZDYMsuvE87XRDv/qDJyfeR9NPL8pEC5jG50H+DIOfi3bC
EatjLyBL6il1THyKKtzLE4wNlZAaE4YiCePdLApTghS1I5EQSggyhbJoHaRqzSTq
AvDoX4iW9ERnkgo1ZYyf1JxRB5AH1Zw3/xzMetkoaphoPNQR6SRQYJ+rfRvNemvT
gpfo7AxiCLOA1Wmtb5uwqglEcOaiDgIhphn6P6EaKUXTwhiDTB8lT4lxYiKNCh4c
mD3JDBMwfWfyL9YpDQQ8CYcFUgPqyWUGTGsgxO/tnndA69ei3azfvRbj1i3GO0OL
XtjqlLZa/oUZtuQ=
-----END CERTIFICATE-----