Certificate:
    Data:
        Version: 3 (0x2)
        Serial Number: 0 (0x0)
        Signature Algorithm: sha1WithRSAEncryption
        Issuer: C=PL, O=Cubiware, OU=CA, CN=CubiwareRootCA
        Validity
            Not Before: Jan  1 00:00:00 2008 GMT
            Not After : Jan  1 00:00:00 2028 GMT
        Subject: C=PL, O=Cubiware, OU=CA, CN=CubiwareRootCA
        Subject Public Key Info:
            Public Key Algorithm: rsaEncryption
            RSA Public Key: (2048 bit)
                Modulus (2048 bit):
                    00:c9:4a:7f:60:e7:24:e5:b2:f7:40:13:32:bf:93:
                    10:fa:e6:d7:27:c4:b9:c2:b6:23:0d:26:5b:3d:96:
                    27:f3:7b:96:a0:38:73:d7:be:d9:82:9c:ed:80:74:
                    dd:5b:f5:23:ca:f2:49:8f:0f:48:05:e6:e2:25:d0:
                    30:ad:e2:bb:95:c4:8d:75:f3:e7:f9:43:75:22:f5:
                    70:63:51:a5:b9:b1:2b:cd:66:ca:b0:e4:c8:28:d2:
                    de:3d:ae:ba:f6:60:7c:7a:51:a6:ce:f0:85:36:02:
                    fc:98:26:4b:52:66:93:83:de:f8:48:2e:df:02:8c:
                    73:21:1c:a3:65:a6:20:60:cf:d9:5c:d4:89:4d:f3:
                    93:54:e9:03:17:c5:a2:8f:cc:e0:54:12:e3:72:58:
                    0e:65:2c:f2:de:46:40:81:2d:3b:cc:1a:06:a1:0c:
                    a7:e6:04:9a:db:9c:82:04:52:4d:02:46:ec:ac:67:
                    2b:45:bd:40:d8:9f:19:fa:93:20:1f:5c:3c:c1:84:
                    62:cc:4a:32:4b:58:9f:f6:47:40:db:20:19:50:35:
                    18:34:9e:aa:56:00:8f:8b:94:03:b4:9e:b5:e1:65:
                    e3:07:29:21:9f:f9:02:b1:82:ca:17:49:e0:83:e1:
                    0e:b6:13:e8:bd:26:75:30:fb:5b:20:c2:46:e3:79:
                    d1:c3
                Exponent: 65537 (0x10001)
        X509v3 extensions:
            X509v3 Subject Key Identifier: 
                85:4F:35:C4:1F:91:CA:1C:4F:BC:7D:C1:F6:FE:A2:41:F3:DB:DB:69
            X509v3 Authority Key Identifier: 
                keyid:85:4F:35:C4:1F:91:CA:1C:4F:BC:7D:C1:F6:FE:A2:41:F3:DB:DB:69
                DirName:/C=PL/O=Cubiware/OU=CA/CN=CubiwareRootCA
                serial:00

            X509v3 Basic Constraints: 
                CA:TRUE
    Signature Algorithm: sha1WithRSAEncryption
        89:a0:fe:4e:cb:5d:91:06:4e:16:91:58:1d:08:ca:71:15:52:
        d5:f3:88:aa:44:a9:3d:a9:13:c3:91:2f:fb:1b:58:fe:fd:0f:
        15:95:a3:6a:78:8c:d2:a5:1d:a6:92:fd:6c:8b:a4:da:04:40:
        0f:59:98:42:a6:ef:78:9e:f1:71:ef:f6:78:85:8c:d0:1c:96:
        5f:cc:19:19:61:02:99:4a:67:f1:9c:93:07:cb:3e:28:6c:cd:
        f7:60:a8:03:f6:f7:39:c1:95:a1:a6:2f:da:ac:91:37:0e:90:
        29:de:bc:44:57:e7:a2:f1:61:e8:33:ff:79:6a:11:14:79:e1:
        c2:ed:93:59:80:43:cc:ac:b6:63:d3:81:e5:08:eb:97:72:97:
        61:4b:78:46:04:e0:2b:b3:e0:85:2f:18:6f:8c:ab:e1:6f:7e:
        13:b0:80:32:52:fe:c4:55:91:af:05:40:aa:58:d2:33:03:c3:
        3f:a3:d3:e9:6d:f9:3b:d1:73:90:5e:91:e3:d0:73:2b:ca:d9:
        c1:e5:9e:30:d8:92:03:37:48:66:92:42:08:1d:f5:97:e3:65:
        e1:dd:90:05:54:55:70:2d:12:cf:45:a5:ef:d4:52:d7:0f:f3:
        da:a4:86:1e:fe:33:94:25:fa:49:61:16:92:1e:13:9a:e8:9f:
        49:c0:be:76
-----BEGIN CERTIFICATE-----
MIIDqDCCApCgAwIBAgIBADANBgkqhkiG9w0BAQUFADBGMQswCQYDVQQGEwJQTDER
MA8GA1UEChMIQ3ViaXdhcmUxCzAJBgNVBAsTAkNBMRcwFQYDVQQDEw5DdWJpd2Fy
ZVJvb3RDQTAeFw0wODAxMDEwMDAwMDBaFw0yODAxMDEwMDAwMDBaMEYxCzAJBgNV
BAYTAlBMMREwDwYDVQQKEwhDdWJpd2FyZTELMAkGA1UECxMCQ0ExFzAVBgNVBAMT
DkN1Yml3YXJlUm9vdENBMIIBIjANBgkqhkiG9w0BAQEFAAOCAQ8AMIIBCgKCAQEA
yUp/YOck5bL3QBMyv5MQ+ubXJ8S5wrYjDSZbPZYn83uWoDhz177ZgpztgHTdW/Uj
yvJJjw9IBebiJdAwreK7lcSNdfPn+UN1IvVwY1GlubErzWbKsOTIKNLePa669mB8
elGmzvCFNgL8mCZLUmaTg974SC7fAoxzIRyjZaYgYM/ZXNSJTfOTVOkDF8Wij8zg
VBLjclgOZSzy3kZAgS07zBoGoQyn5gSa25yCBFJNAkbsrGcrRb1A2J8Z+pMgH1w8
wYRizEoyS1if9kdA2yAZUDUYNJ6qVgCPi5QDtJ614WXjBykhn/kCsYLKF0ngg+EO
thPovSZ1MPtbIMJG43nRwwIDAQABo4GgMIGdMB0GA1UdDgQWBBSFTzXEH5HKHE+8
fcH2/qJB89vbaTBuBgNVHSMEZzBlgBSFTzXEH5HKHE+8fcH2/qJB89vbaaFKpEgw
RjELMAkGA1UEBhMCUEwxETAPBgNVBAoTCEN1Yml3YXJlMQswCQYDVQQLEwJDQTEX
MBUGA1UEAxMOQ3ViaXdhcmVSb290Q0GCAQAwDAYDVR0TBAUwAwEB/zANBgkqhkiG
9w0BAQUFAAOCAQEAiaD+TstdkQZOFpFYHQjKcRVS1fOIqkSpPakTw5Ev+xtY/v0P
FZWjaniM0qUdppL9bIuk2gRAD1mYQqbveJ7xce/2eIWM0ByWX8wZGWECmUpn8ZyT
B8s+KGzN92CoA/b3OcGVoaYv2qyRNw6QKd68RFfnovFh6DP/eWoRFHnhwu2TWYBD
zKy2Y9OB5Qjrl3KXYUt4RgTgK7PghS8Yb4yr4W9+E7CAMlL+xFWRrwVAqljSMwPD
P6PT6W35O9FzkF6R49BzK8rZweWeMNiSAzdIZpJCCB31l+Nl4d2QBVRVcC0Sz0Wl
79RS1w/z2qSGHv4zlCX6SWEWkh4TmuifScC+dg==
-----END CERTIFICATE-----
